target datalayout = "e-m:e-p270:32:32-p271:32:32-p272:64:64-i64:64-i128:128-f80:128-n8:16:32:64-S128"
target triple = "x86_64-pc-linux-gnu"

%struct.FT_ListRec_ = type { ptr, ptr }
%struct.FT_CharMapRec_ = type { ptr, i32, i16, i16 }
%struct.T1_FaceRec_ = type { %struct.FT_FaceRec_, %struct.T1_FontRec_, ptr, ptr, ptr, [2 x %struct.FT_CharMapRec_], [2 x ptr], ptr, i32, i32, i32, ptr, ptr }
%struct.FT_FaceRec_ = type { i64, i64, i64, i64, i64, ptr, ptr, i32, ptr, i32, ptr, %struct.FT_Generic_, %struct.FT_BBox_, i16, i16, i16, i16, i16, i16, i16, i16, ptr, ptr, ptr, ptr, ptr, ptr, %struct.FT_ListRec_, %struct.FT_Generic_, ptr, ptr }
%struct.FT_BBox_ = type { i64, i64, i64, i64 }
%struct.FT_Generic_ = type { ptr, ptr }
%struct.T1_FontRec_ = type { %struct.PS_FontInfoRec_, %struct.PS_FontExtraRec_, %struct.PS_PrivateRec_, ptr, i32, %struct.T1_EncodingRecRec_, ptr, ptr, ptr, i32, ptr, ptr, ptr, i32, ptr, ptr, ptr, i8, i8, %struct.FT_Matrix_, %struct.FT_Vector_, %struct.FT_BBox_, i64, i64 }
%struct.PS_FontInfoRec_ = type { ptr, ptr, ptr, ptr, ptr, i64, i8, i16, i16 }
%struct.PS_FontExtraRec_ = type { i16 }
%struct.PS_PrivateRec_ = type { i32, i32, i8, i8, i8, i8, [14 x i16], [10 x i16], [14 x i16], [10 x i16], i64, i32, i32, [1 x i16], [1 x i16], i8, i8, i8, i8, [13 x i16], [13 x i16], i64, i64, i64, [2 x i16] }
%struct.T1_EncodingRecRec_ = type { i32, i32, i32, ptr, ptr }
%struct.FT_Matrix_ = type { i64, i64, i64, i64 }
%struct.FT_Vector_ = type { i64, i64 }
%struct.PS_BlendRec_ = type { i32, i32, [4 x ptr], [16 x ptr], [4 x %struct.PS_DesignMap_], ptr, ptr, [17 x ptr], [17 x ptr], i64, [17 x ptr], [16 x i32], i32 }
%struct.PS_DesignMap_ = type { i8, ptr, ptr }

; Function Attrs: nounwind uwtable
define internal i32 @FT_MulFix_x86_64(i32 noundef %0, i32 noundef %1) #0 {
  %3 = alloca i32, align 4
  %4 = alloca i32, align 4
  %5 = alloca i64, align 8
  %6 = alloca i64, align 8
  store i32 %0, ptr %3, align 4
  store i32 %1, ptr %4, align 4
  %7 = load i32, ptr %3, align 4
  %8 = sext i32 %7 to i64
  %9 = load i32, ptr %4, align 4
  %10 = sext i32 %9 to i64
  %11 = mul nsw i64 %8, %10
  store i64 %11, ptr %5, align 8
  %12 = load i64, ptr %5, align 8
  %13 = ashr i64 %12, 63
  store i64 %13, ptr %6, align 8
  %14 = load i64, ptr %6, align 8
  %15 = add nsw i64 32768, %14
  %16 = load i64, ptr %5, align 8
  %17 = add nsw i64 %16, %15
  store i64 %17, ptr %5, align 8
  %18 = load i64, ptr %5, align 8
  %19 = ashr i64 %18, 16
  %20 = trunc i64 %19 to i32
  ret i32 %20
}

; Function Attrs: nounwind uwtable
define internal i32 @t1_set_mm_blend(ptr noundef %0, i32 noundef %1, ptr noundef %2) #0 {
  %4 = alloca i32, align 4
  %5 = alloca ptr, align 8
  %6 = alloca i32, align 4
  %7 = alloca ptr, align 8
  %8 = alloca ptr, align 8
  %9 = alloca i32, align 4
  %10 = alloca i32, align 4
  %11 = alloca i8, align 1
  %12 = alloca i64, align 8
  %13 = alloca i64, align 8
  store ptr %0, ptr %5, align 8
  store i32 %1, ptr %6, align 4
  store ptr %2, ptr %7, align 8
  %14 = load ptr, ptr %5, align 8
  %15 = getelementptr inbounds %struct.T1_FaceRec_, ptr %14, i32 0, i32 7
  %16 = load ptr, ptr %15, align 8
  store ptr %16, ptr %8, align 8
  store i8 0, ptr %11, align 1
  %17 = load ptr, ptr %8, align 8
  %18 = icmp ne ptr %17, null
  br i1 %18, label %20, label %19

19:                                               ; preds = %3
  store i32 6, ptr %4, align 4
  br label %111

20:                                               ; preds = %3
  %21 = load i32, ptr %6, align 4
  %22 = load ptr, ptr %8, align 8
  %23 = getelementptr inbounds %struct.PS_BlendRec_, ptr %22, i32 0, i32 1
  %24 = load i32, ptr %23, align 4
  %25 = icmp ugt i32 %21, %24
  br i1 %25, label %26, label %30

26:                                               ; preds = %20
  %27 = load ptr, ptr %8, align 8
  %28 = getelementptr inbounds %struct.PS_BlendRec_, ptr %27, i32 0, i32 1
  %29 = load i32, ptr %28, align 4
  store i32 %29, ptr %6, align 4
  br label %30

30:                                               ; preds = %26, %20
  store i32 0, ptr %9, align 4
  br label %31

31:                                               ; preds = %103, %30
  %32 = load i32, ptr %9, align 4
  %33 = load ptr, ptr %8, align 8
  %34 = getelementptr inbounds %struct.PS_BlendRec_, ptr %33, i32 0, i32 0
  %35 = load i32, ptr %34, align 8
  %36 = icmp ult i32 %32, %35
  br i1 %36, label %37, label %106

37:                                               ; preds = %31
  store i64 65536, ptr %12, align 8
  store i32 0, ptr %10, align 4
  br label %38

38:                                               ; preds = %81, %37
  %39 = load i32, ptr %10, align 4
  %40 = load ptr, ptr %8, align 8
  %41 = getelementptr inbounds %struct.PS_BlendRec_, ptr %40, i32 0, i32 1
  %42 = load i32, ptr %41, align 4
  %43 = icmp ult i32 %39, %42
  br i1 %43, label %44, label %84

44:                                               ; preds = %38
  %45 = load i32, ptr %10, align 4
  %46 = load i32, ptr %6, align 4
  %47 = icmp uge i32 %45, %46
  br i1 %47, label %48, label %51

48:                                               ; preds = %44
  %49 = load i64, ptr %12, align 8
  %50 = ashr i64 %49, 1
  store i64 %50, ptr %12, align 8
  br label %81

51:                                               ; preds = %44
  %52 = load ptr, ptr %7, align 8
  %53 = load i32, ptr %10, align 4
  %54 = zext i32 %53 to i64
  %55 = getelementptr inbounds i64, ptr %52, i64 %54
  %56 = load i64, ptr %55, align 8
  store i64 %56, ptr %13, align 8
  %57 = load i32, ptr %9, align 4
  %58 = load i32, ptr %10, align 4
  %59 = shl i32 1, %58
  %60 = and i32 %57, %59
  %61 = icmp eq i32 %60, 0
  br i1 %61, label %62, label %65

62:                                               ; preds = %51
  %63 = load i64, ptr %13, align 8
  %64 = sub nsw i64 65536, %63
  store i64 %64, ptr %13, align 8
  br label %65

65:                                               ; preds = %62, %51
  %66 = load i64, ptr %13, align 8
  %67 = icmp sle i64 %66, 0
  br i1 %67, label %68, label %69

68:                                               ; preds = %65
  store i64 0, ptr %12, align 8
  br label %84

69:                                               ; preds = %65
  %70 = load i64, ptr %13, align 8
  %71 = icmp sge i64 %70, 65536
  br i1 %71, label %72, label %73

72:                                               ; preds = %69
  br label %81

73:                                               ; preds = %69
  br label %74

74:                                               ; preds = %73
  %75 = load i64, ptr %12, align 8
  %76 = trunc i64 %75 to i32
  %77 = load i64, ptr %13, align 8
  %78 = trunc i64 %77 to i32
  %79 = call i32 @FT_MulFix_x86_64(i32 noundef %76, i32 noundef %78)
  %80 = sext i32 %79 to i64
  store i64 %80, ptr %12, align 8
  br label %81

81:                                               ; preds = %74, %72, %48
  %82 = load i32, ptr %10, align 4
  %83 = add i32 %82, 1
  store i32 %83, ptr %10, align 4
  br label %38, !llvm.loop !30

84:                                               ; preds = %68, %38
  %85 = load ptr, ptr %8, align 8
  %86 = getelementptr inbounds %struct.PS_BlendRec_, ptr %85, i32 0, i32 5
  %87 = load ptr, ptr %86, align 8
  %88 = load i32, ptr %9, align 4
  %89 = zext i32 %88 to i64
  %90 = getelementptr inbounds i64, ptr %87, i64 %89
  %91 = load i64, ptr %90, align 8
  %92 = load i64, ptr %12, align 8
  %93 = icmp ne i64 %91, %92
  br i1 %93, label %94, label %102

94:                                               ; preds = %84
  %95 = load i64, ptr %12, align 8
  %96 = load ptr, ptr %8, align 8
  %97 = getelementptr inbounds %struct.PS_BlendRec_, ptr %96, i32 0, i32 5
  %98 = load ptr, ptr %97, align 8
  %99 = load i32, ptr %9, align 4
  %100 = zext i32 %99 to i64
  %101 = getelementptr inbounds i64, ptr %98, i64 %100
  store i64 %95, ptr %101, align 8
  store i8 1, ptr %11, align 1
  br label %102

102:                                              ; preds = %94, %84
  br label %103

103:                                              ; preds = %102
  %104 = load i32, ptr %9, align 4
  %105 = add i32 %104, 1
  store i32 %105, ptr %9, align 4
  br label %31, !llvm.loop !31

106:                                              ; preds = %31
  %107 = load i8, ptr %11, align 1
  %108 = zext i8 %107 to i32
  %109 = icmp ne i32 %108, 0
  %110 = select i1 %109, i32 0, i32 -1
  store i32 %110, ptr %4, align 4
  br label %111

111:                                              ; preds = %106, %19
  %112 = load i32, ptr %4, align 4
  ret i32 %112
}

; Function Attrs: nounwind uwtable
define internal i32 @T1_Set_MM_Blend(ptr noundef %0, i32 noundef %1, ptr noundef %2) #0 {
  %4 = alloca ptr, align 8
  %5 = alloca i32, align 4
  %6 = alloca ptr, align 8
  store ptr %0, ptr %4, align 8
  store i32 %1, ptr %5, align 4
  store ptr %2, ptr %6, align 8
  %7 = load ptr, ptr %4, align 8
  %8 = load i32, ptr %5, align 4
  %9 = load ptr, ptr %6, align 8
  %10 = call i32 @t1_set_mm_blend(ptr noundef %7, i32 noundef %8, ptr noundef %9)
  ret i32 %10
}