; Function Attrs: nofree norecurse nosync nounwind memory(readwrite, inaccessiblemem: none) uwtable
define internal range(i32 -1, 7) i32 @T1_Set_MM_Blend(ptr nocapture noundef readonly %0, i32 noundef %1, ptr nocapture noundef readonly %2) #10 {
  %4 = getelementptr i8, ptr %0, i64 848
  %.val = load ptr, ptr %4, align 8
  %.not.i = icmp eq ptr %.val, null
  br i1 %.not.i, label %t1_set_mm_blend.exit, label %5

5:                                                ; preds = %3
  %6 = getelementptr inbounds i8, ptr %.val, i64 4
  %7 = load i32, ptr %.val, align 8
  %.not9.i = icmp eq i32 %7, 0
  br i1 %.not9.i, label %t1_set_mm_blend.exit, label %.preheader.lr.ph.i

.preheader.lr.ph.i:                               ; preds = %5
  %8 = load i32, ptr %6, align 4
  %spec.select.i = tail call i32 @llvm.umin.i32(i32 %8, i32 %1)
  %9 = getelementptr inbounds i8, ptr %.val, i64 264
  %10 = zext i32 %spec.select.i to i64
  br label %.preheader.i

.preheaderthread-pre-split.i:                     ; preds = %39
  %.pr.i = load i32, ptr %6, align 4
  br label %.preheader.i

.preheader.i:                                     ; preds = %.preheaderthread-pre-split.i, %.preheader.lr.ph.i
  %11 = phi i32 [ %.pr.i, %.preheaderthread-pre-split.i ], [ %8, %.preheader.lr.ph.i ]
  %12 = phi i32 [ %40, %.preheaderthread-pre-split.i ], [ %7, %.preheader.lr.ph.i ]
  %indvars.iv12.i = phi i64 [ %indvars.iv.next13.i, %.preheaderthread-pre-split.i ], [ 0, %.preheader.lr.ph.i ]
  %.0317.i = phi i8 [ %.132.i, %.preheaderthread-pre-split.i ], [ 0, %.preheader.lr.ph.i ]
  %.not10.i = icmp eq i32 %11, 0
  br i1 %.not10.i, label %._crit_edge.i, label %.lr.ph.preheader.i

.lr.ph.preheader.i:                               ; preds = %.preheader.i
  %wide.trip.count.i = zext i32 %11 to i64
  %13 = trunc nuw i64 %indvars.iv12.i to i32
  br label %.lr.ph.i

.lr.ph.i:                                         ; preds = %34, %.lr.ph.preheader.i
  %indvars.iv.i = phi i64 [ 0, %.lr.ph.preheader.i ], [ %indvars.iv.next.i, %34 ]
  %.0303.i = phi i64 [ 65536, %.lr.ph.preheader.i ], [ %.1.i, %34 ]
  %.not41.i = icmp ult i64 %indvars.iv.i, %10
  br i1 %.not41.i, label %16, label %14

14:                                               ; preds = %.lr.ph.i
  %15 = ashr i64 %.0303.i, 1
  br label %34

16:                                               ; preds = %.lr.ph.i
  %17 = getelementptr inbounds i64, ptr %2, i64 %indvars.iv.i
  %18 = load i64, ptr %17, align 8
  %19 = trunc nuw i64 %indvars.iv.i to i32
  %20 = shl nuw i32 1, %19
  %21 = and i32 %20, %13
  %22 = icmp eq i32 %21, 0
  %23 = sub nsw i64 65536, %18
  %spec.select43.i = select i1 %22, i64 %23, i64 %18
  %24 = icmp slt i64 %spec.select43.i, 1
  br i1 %24, label %._crit_edge.i, label %25

25:                                               ; preds = %16
  %26 = icmp ugt i64 %spec.select43.i, 65535
  br i1 %26, label %34, label %27

27:                                               ; preds = %25
  %28 = mul nsw i64 %spec.select43.i, %.0303.i
  %29 = ashr i64 %28, 63
  %30 = add nsw i64 %28, 32768
  %31 = add nsw i64 %30, %29
  %32 = shl i64 %31, 16
  %33 = ashr i64 %32, 32
  br label %34

34:                                               ; preds = %27, %25, %14
  %.1.i = phi i64 [ %15, %14 ], [ %.0303.i, %25 ], [ %33, %27 ]
  %indvars.iv.next.i = add nuw nsw i64 %indvars.iv.i, 1
  %exitcond.not.i = icmp eq i64 %indvars.iv.next.i, %wide.trip.count.i
  br i1 %exitcond.not.i, label %._crit_edge.i, label %.lr.ph.i, !llvm.loop !20

._crit_edge.i:                                    ; preds = %34, %16, %.preheader.i
  %.2.i = phi i64 [ 65536, %.preheader.i ], [ %.1.i, %34 ], [ 0, %16 ]
  %35 = load ptr, ptr %9, align 8
  %36 = getelementptr inbounds i64, ptr %35, i64 %indvars.iv12.i
  %37 = load i64, ptr %36, align 8
  %.not42.i = icmp eq i64 %37, %.2.i
  br i1 %.not42.i, label %39, label %38

38:                                               ; preds = %._crit_edge.i
  store i64 %.2.i, ptr %36, align 8
  %.pre.i = load i32, ptr %.val, align 8
  br label %39

39:                                               ; preds = %38, %._crit_edge.i
  %40 = phi i32 [ %.pre.i, %38 ], [ %12, %._crit_edge.i ]
  %.132.i = phi i8 [ 1, %38 ], [ %.0317.i, %._crit_edge.i ]
  %indvars.iv.next13.i = add nuw nsw i64 %indvars.iv12.i, 1
  %41 = zext i32 %40 to i64
  %42 = icmp ult i64 %indvars.iv.next13.i, %41
  br i1 %42, label %.preheaderthread-pre-split.i, label %._crit_edge8.loopexit.i, !llvm.loop !21

._crit_edge8.loopexit.i:                          ; preds = %39
  %43 = icmp eq i8 %.132.i, 0
  %44 = sext i1 %43 to i32
  br label %t1_set_mm_blend.exit

t1_set_mm_blend.exit:                             ; preds = %3, %5, %._crit_edge8.loopexit.i
  %.035.i = phi i32 [ 6, %3 ], [ -1, %5 ], [ %44, %._crit_edge8.loopexit.i ]
  ret i32 %.035.i
}